; Function Attrs: mustprogress uwtable
define hidden noundef ptr @_Z26mk_sat_preprocessor_tacticR11ast_managerRK10params_ref(ptr nocapture noundef nonnull readnone align 8 dereferenceable(976) %m, ptr noundef nonnull align 8 dereferenceable(8) %p) local_unnamed_addr #3 personality ptr @__gxx_personality_v0 {
entry:
  %p_aux = alloca %class.params_ref, align 8
  store ptr null, ptr %p_aux, align 8
  invoke void @_ZN10params_ref8set_uintEPKcj(ptr noundef nonnull align 8 dereferenceable(8) %p_aux, ptr noundef nonnull @.str, i32 noundef 0)
          to label %invoke.cont unwind label %lpad

invoke.cont:                                      ; preds = %entry
  invoke void @_ZN10params_ref8set_boolEPKcb(ptr noundef nonnull align 8 dereferenceable(8) %p_aux, ptr noundef nonnull @.str.2, i1 noundef zeroext true)
          to label %invoke.cont1 unwind label %lpad

invoke.cont1:                                     ; preds = %invoke.cont
  %call = invoke noundef ptr @_Z13mk_sat_tacticR11ast_managerRK10params_ref(ptr nonnull align 8 poison, ptr noundef nonnull align 8 dereferenceable(8) %p)
          to label %invoke.cont2 unwind label %lpad

invoke.cont2:                                     ; preds = %invoke.cont1
  %call4 = invoke noundef ptr @_Z12using_paramsP6tacticRK10params_ref(ptr noundef %call, ptr noundef nonnull align 8 dereferenceable(8) %p_aux)
          to label %invoke.cont3 unwind label %lpad

invoke.cont3:                                     ; preds = %invoke.cont2
  %call6 = invoke noundef ptr @_Z5cleanP6tactic(ptr noundef %call4)
          to label %invoke.cont5 unwind label %lpad

invoke.cont5:                                     ; preds = %invoke.cont3
  %vtable = load ptr, ptr %call6, align 8
  %vfn = getelementptr inbounds i8, ptr %vtable, i64 96
  %0 = load ptr, ptr %vfn, align 8
  invoke void %0(ptr noundef nonnull align 8 dereferenceable(12) %call6, ptr noundef nonnull align 8 dereferenceable(8) %p)
          to label %invoke.cont7 unwind label %lpad

invoke.cont7:                                     ; preds = %invoke.cont5
  call void @_ZN10params_refD1Ev(ptr noundef nonnull align 8 dereferenceable(8) %p_aux) #16
  ret ptr %call6

lpad:                                             ; preds = %invoke.cont5, %invoke.cont3, %invoke.cont2, %invoke.cont1, %invoke.cont, %entry
  %1 = landingpad { ptr, i32 }
          cleanup
  call void @_ZN10params_refD1Ev(ptr noundef nonnull align 8 dereferenceable(8) %p_aux) #16
  resume { ptr, i32 } %1
}